; Function Attrs: nofree norecurse nosync nounwind memory(argmem: readwrite) uwtable
define internal void @_blend_Lab_b(ptr noundef readonly captures(none) %0, ptr noundef readonly captures(none) %1, ptr noundef writeonly captures(none) %2, ptr noalias noundef readonly captures(none) %3, i64 noundef %4, ptr readnone captures(none) %5, ptr readnone captures(none) %6) unnamed_addr #11 {
  %8 = alloca [4 x float], align 16
  %9 = alloca [4 x float], align 16
  %.not = icmp eq i64 %4, 0
  br i1 %.not, label %._crit_edge, label %.lr.ph

.lr.ph:                                           ; preds = %7
  %10 = getelementptr inbounds nuw i8, ptr %8, i64 4
  %11 = getelementptr inbounds nuw i8, ptr %9, i64 4
  %12 = getelementptr inbounds nuw i8, ptr %8, i64 8
  %13 = getelementptr inbounds nuw i8, ptr %9, i64 8
  br label %14

._crit_edge:                                      ; preds = %_blend_Lab_rescale.exit, %7
  ret void

14:                                               ; preds = %.lr.ph, %_blend_Lab_rescale.exit
  %.023 = phi i64 [ 0, %.lr.ph ], [ %53, %_blend_Lab_rescale.exit ]
  %.01622 = phi i64 [ 0, %.lr.ph ], [ %54, %_blend_Lab_rescale.exit ]
  %15 = getelementptr inbounds nuw float, ptr %3, i64 %.023
  %16 = load float, ptr %15, align 4, !tbaa !36
  call void @llvm.lifetime.start.p0(i64 16, ptr nonnull %8) #8
  call void @llvm.lifetime.start.p0(i64 16, ptr nonnull %9) #8
  %17 = getelementptr inbounds nuw float, ptr %0, i64 %.01622
  br label %18

18:                                               ; preds = %18, %14
  %.06.i = phi i64 [ 0, %14 ], [ %25, %18 ]
  %19 = getelementptr inbounds nuw float, ptr %17, i64 %.06.i
  %20 = load float, ptr %19, align 4, !tbaa !36
  %21 = getelementptr inbounds nuw [4 x float], ptr @__const._blend_Lab_scale.scale, i64 0, i64 %.06.i
  %22 = load float, ptr %21, align 4, !tbaa !36
  %23 = fmul reassoc nsz arcp contract afn float %22, %20
  %24 = getelementptr inbounds nuw float, ptr %8, i64 %.06.i
  store float %23, ptr %24, align 4, !tbaa !36
  %25 = add nuw nsw i64 %.06.i, 1
  %exitcond.not.i = icmp eq i64 %25, 4
  br i1 %exitcond.not.i, label %_blend_Lab_scale.exit, label %18

_blend_Lab_scale.exit:                            ; preds = %18
  %26 = getelementptr inbounds nuw float, ptr %1, i64 %.01622
  br label %27

27:                                               ; preds = %27, %_blend_Lab_scale.exit
  %.06.i17 = phi i64 [ 0, %_blend_Lab_scale.exit ], [ %34, %27 ]
  %28 = getelementptr inbounds nuw float, ptr %26, i64 %.06.i17
  %29 = load float, ptr %28, align 4, !tbaa !36
  %30 = getelementptr inbounds nuw [4 x float], ptr @__const._blend_Lab_scale.scale, i64 0, i64 %.06.i17
  %31 = load float, ptr %30, align 4, !tbaa !36
  %32 = fmul reassoc nsz arcp contract afn float %31, %29
  %33 = getelementptr inbounds nuw float, ptr %9, i64 %.06.i17
  store float %32, ptr %33, align 4, !tbaa !36
  %34 = add nuw nsw i64 %.06.i17, 1
  %exitcond.not.i18 = icmp eq i64 %34, 4
  br i1 %exitcond.not.i18, label %_blend_Lab_scale.exit19, label %27

_blend_Lab_scale.exit19:                          ; preds = %27
  %35 = load float, ptr %8, align 16, !tbaa !36
  store float %35, ptr %9, align 16, !tbaa !36
  %36 = load float, ptr %10, align 4, !tbaa !36
  store float %36, ptr %11, align 4, !tbaa !36
  %37 = load float, ptr %12, align 8, !tbaa !36
  %38 = load float, ptr %13, align 8, !tbaa !36
  %39 = fsub reassoc nsz arcp contract afn float %38, %37
  %40 = fmul reassoc nsz arcp contract afn float %39, %16
  %41 = fadd reassoc nsz arcp contract afn float %40, %37
  store float %41, ptr %13, align 8, !tbaa !36
  %42 = getelementptr inbounds nuw float, ptr %2, i64 %.01622
  br label %43

43:                                               ; preds = %43, %_blend_Lab_scale.exit19
  %.06.i20 = phi i64 [ 0, %_blend_Lab_scale.exit19 ], [ %50, %43 ]
  %44 = getelementptr inbounds nuw float, ptr %9, i64 %.06.i20
  %45 = load float, ptr %44, align 4, !tbaa !36
  %46 = getelementptr inbounds nuw [4 x float], ptr @__const._blend_Lab_rescale.scale, i64 0, i64 %.06.i20
  %47 = load float, ptr %46, align 4, !tbaa !36
  %48 = fmul reassoc nsz arcp contract afn float %47, %45
  %49 = getelementptr inbounds nuw float, ptr %42, i64 %.06.i20
  store float %48, ptr %49, align 4, !tbaa !36
  %50 = add nuw nsw i64 %.06.i20, 1
  %exitcond.not.i21 = icmp eq i64 %50, 4
  br i1 %exitcond.not.i21, label %_blend_Lab_rescale.exit, label %43

_blend_Lab_rescale.exit:                          ; preds = %43
  %51 = or disjoint i64 %.01622, 3
  %52 = getelementptr inbounds nuw float, ptr %2, i64 %51
  store float %16, ptr %52, align 4, !tbaa !36
  call void @llvm.lifetime.end.p0(i64 16, ptr nonnull %9) #8
  call void @llvm.lifetime.end.p0(i64 16, ptr nonnull %8) #8
  %53 = add nuw i64 %.023, 1
  %54 = add i64 %.01622, 4
  %exitcond.not = icmp eq i64 %53, %4
  br i1 %exitcond.not, label %._crit_edge, label %14
}